(dp0
S'integer'
p1
(S'I36\n.'
p2
cdatetime
datetime
p3
(S'\x07\xde\t\x1e\x16\x07\x11\tM '
p4
tp5
Rp6
tp7
sS'list'
p8
(S"(lp0\nI36\naS'abcdefgh'\np1\na."
p9
g3
(S'\x07\xde\t\x1e\x16\x07\x11\t_\x86'
p10
tp11
Rp12
tp13
sS'string'
p14
(S"S'abcdefgh'\np0\n."
p15
g3
(S'\x07\xde\t\x1e\x16\x07\x11\tU\xb6'
p16
tp17
Rp18
tp19
sS'dictionary'
p20
(S"(dp0\nS'integer'\np1\nI36\nsS'string'\np2\nS'abcdefgh'\np3\ns."
p21
g3
(S'\x07\xde\t\x1e\x16\x07\x11\tj\x9b'
p22
tp23
Rp24
tp25
s.